; Function Attrs: nounwind uwtable
define dso_local range(i32 -2147483648, 1) i32 @onig_unicode_define_user_property(ptr noundef readonly captures(none) %0, ptr noundef %1) local_unnamed_addr #0 {
  %3 = load i32, ptr @UserDefinedPropertyNum, align 4, !tbaa !17
  %4 = icmp sgt i32 %3, 19
  br i1 %4, label %45, label %5

5:                                                ; preds = %2
  %6 = tail call i64 @strlen(ptr noundef nonnull dereferenceable(1) %0) #11
  %7 = trunc i64 %6 to i32
  %8 = icmp sgt i32 %7, 60
  br i1 %8, label %45, label %9

9:                                                ; preds = %5
  %10 = shl i64 %6, 32
  %sext = add i64 %10, 4294967296
  %11 = ashr exact i64 %sext, 32
  %12 = tail call noalias ptr @malloc(i64 noundef %11) #12
  %13 = icmp eq ptr %12, null
  br i1 %13, label %45, label %.preheader

.preheader:                                       ; preds = %9
  %14 = icmp sgt i32 %7, 0
  br i1 %14, label %.lr.ph.preheader, label %._crit_edge

.lr.ph.preheader:                                 ; preds = %.preheader
  %wide.trip.count = and i64 %6, 2147483647
  br label %.lr.ph

.lr.ph:                                           ; preds = %.lr.ph.preheader, %23
  %indvars.iv = phi i64 [ 0, %.lr.ph.preheader ], [ %indvars.iv.next, %23 ]
  %.03844 = phi i32 [ 0, %.lr.ph.preheader ], [ %.1, %23 ]
  %15 = getelementptr inbounds nuw i8, ptr %0, i64 %indvars.iv
  %16 = load i8, ptr %15, align 1, !tbaa !21
  %or.cond = icmp slt i8 %16, 32
  br i1 %or.cond, label %17, label %18

17:                                               ; preds = %.lr.ph
  tail call void @free(ptr noundef %12) #10
  br label %45

18:                                               ; preds = %.lr.ph
  switch i8 %16, label %19 [
    i8 95, label %23
    i8 45, label %23
    i8 32, label %23
  ]

19:                                               ; preds = %18
  %20 = sext i32 %.03844 to i64
  %21 = getelementptr inbounds i8, ptr %12, i64 %20
  store i8 %16, ptr %21, align 1, !tbaa !21
  %22 = add nsw i32 %.03844, 1
  br label %23

23:                                               ; preds = %18, %18, %18, %19
  %.1 = phi i32 [ %22, %19 ], [ %.03844, %18 ], [ %.03844, %18 ], [ %.03844, %18 ]
  %indvars.iv.next = add nuw nsw i64 %indvars.iv, 1
  %exitcond.not = icmp eq i64 %indvars.iv.next, %wide.trip.count
  br i1 %exitcond.not, label %._crit_edge.loopexit, label %.lr.ph, !llvm.loop !69

._crit_edge.loopexit:                             ; preds = %23
  %24 = sext i32 %.1 to i64
  br label %._crit_edge

._crit_edge:                                      ; preds = %._crit_edge.loopexit, %.preheader
  %.038.lcssa = phi i64 [ 0, %.preheader ], [ %24, %._crit_edge.loopexit ]
  %25 = getelementptr inbounds i8, ptr %12, i64 %.038.lcssa
  store i8 0, ptr %25, align 1, !tbaa !21
  %26 = load ptr, ptr @UserDefinedPropertyTable, align 8, !tbaa !70
  %27 = icmp eq ptr %26, null
  br i1 %27, label %28, label %32

28:                                               ; preds = %._crit_edge
  %29 = tail call ptr @onig_st_init_strend_table_with_size(i32 noundef 10) #10
  store ptr %29, ptr @UserDefinedPropertyTable, align 8, !tbaa !70
  %30 = icmp eq ptr %29, null
  br i1 %30, label %31, label %._crit_edge47

._crit_edge47:                                    ; preds = %28
  %.pre = load i32, ptr @UserDefinedPropertyNum, align 4, !tbaa !17
  br label %32

31:                                               ; preds = %28
  tail call void @free(ptr noundef nonnull %12) #10
  br label %45

32:                                               ; preds = %._crit_edge47, %._crit_edge
  %33 = phi ptr [ %29, %._crit_edge47 ], [ %26, %._crit_edge ]
  %34 = phi i32 [ %.pre, %._crit_edge47 ], [ %3, %._crit_edge ]
  %35 = sext i32 %34 to i64
  %36 = getelementptr inbounds %struct.UserDefinedPropertyValue, ptr @UserDefinedPropertyRanges, i64 %35
  %37 = add nsw i32 %34, 629
  store i32 %37, ptr %36, align 16, !tbaa !72
  %38 = getelementptr inbounds nuw i8, ptr %36, i64 8
  store ptr %1, ptr %38, align 8, !tbaa !61
  %39 = ptrtoint ptr %36 to i64
  %40 = tail call i32 @onig_st_insert_strend(ptr noundef nonnull %33, ptr noundef nonnull %12, ptr noundef nonnull %25, i64 noundef %39) #10
  %41 = icmp slt i32 %40, 0
  br i1 %41, label %45, label %42

42:                                               ; preds = %32
  %43 = load i32, ptr @UserDefinedPropertyNum, align 4, !tbaa !17
  %44 = add nsw i32 %43, 1
  store i32 %44, ptr @UserDefinedPropertyNum, align 4, !tbaa !17
  br label %45

45:                                               ; preds = %32, %9, %5, %2, %42, %31, %17
  %.0 = phi i32 [ -223, %17 ], [ -5, %31 ], [ 0, %42 ], [ -404, %2 ], [ -405, %5 ], [ -5, %9 ], [ %40, %32 ]
  ret i32 %.0
}